target datalayout = "e-m:e-p270:32:32-p271:32:32-p272:64:64-i64:64-i128:128-f80:128-n8:16:32:64-S128"
target triple = "x86_64-pc-linux-gnu"

%struct.JNINativeInterface_ = type { ptr, ptr, ptr, ptr, ptr, ptr, ptr, ptr, ptr, ptr, ptr, ptr, ptr, ptr, ptr, ptr, ptr, ptr, ptr, ptr, ptr, ptr, ptr, ptr, ptr, ptr, ptr, ptr, ptr, ptr, ptr, ptr, ptr, ptr, ptr, ptr, ptr, ptr, ptr, ptr, ptr, ptr, ptr, ptr, ptr, ptr, ptr, ptr, ptr, ptr, ptr, ptr, ptr, ptr, ptr, ptr, ptr, ptr, ptr, ptr, ptr, ptr, ptr, ptr, ptr, ptr, ptr, ptr, ptr, ptr, ptr, ptr, ptr, ptr, ptr, ptr, ptr, ptr, ptr, ptr, ptr, ptr, ptr, ptr, ptr, ptr, ptr, ptr, ptr, ptr, ptr, ptr, ptr, ptr, ptr, ptr, ptr, ptr, ptr, ptr, ptr, ptr, ptr, ptr, ptr, ptr, ptr, ptr, ptr, ptr, ptr, ptr, ptr, ptr, ptr, ptr, ptr, ptr, ptr, ptr, ptr, ptr, ptr, ptr, ptr, ptr, ptr, ptr, ptr, ptr, ptr, ptr, ptr, ptr, ptr, ptr, ptr, ptr, ptr, ptr, ptr, ptr, ptr, ptr, ptr, ptr, ptr, ptr, ptr, ptr, ptr, ptr, ptr, ptr, ptr, ptr, ptr, ptr, ptr, ptr, ptr, ptr, ptr, ptr, ptr, ptr, ptr, ptr, ptr, ptr, ptr, ptr, ptr, ptr, ptr, ptr, ptr, ptr, ptr, ptr, ptr, ptr, ptr, ptr, ptr, ptr, ptr, ptr, ptr, ptr, ptr, ptr, ptr, ptr, ptr, ptr, ptr, ptr, ptr, ptr, ptr, ptr, ptr, ptr, ptr, ptr, ptr, ptr, ptr, ptr, ptr, ptr, ptr, ptr, ptr, ptr, ptr, ptr, ptr, ptr, ptr, ptr, ptr, ptr, ptr, ptr, ptr, ptr, ptr, ptr, ptr, ptr, ptr, ptr, ptr }
%struct.GtkApi = type { i32, ptr, ptr, ptr, ptr, ptr, ptr, ptr, ptr, ptr, ptr, ptr, ptr, ptr, ptr, ptr, ptr, ptr, ptr, ptr, ptr, ptr, ptr, ptr, ptr, ptr, ptr, ptr, ptr, ptr, ptr, ptr, ptr, ptr, ptr, ptr, ptr, ptr, ptr, ptr, ptr, ptr, ptr, ptr, ptr, ptr, ptr, ptr, ptr, ptr, ptr, ptr, ptr, ptr, ptr, ptr, ptr, ptr, ptr, ptr, ptr, ptr, ptr, ptr, ptr, ptr, ptr, ptr, ptr, ptr, ptr, ptr, ptr, ptr, ptr, ptr, ptr, ptr, ptr, ptr, ptr, ptr, ptr, ptr, ptr, ptr, ptr, ptr, ptr, ptr, ptr, ptr, ptr, ptr, ptr, ptr, ptr, ptr, ptr, ptr, ptr, ptr, ptr, ptr, ptr }

@widgetFieldID = internal global ptr null, align 8
@gtk = external global ptr, align 8

; Function Attrs: nounwind uwtable
define internal void @quit(ptr noundef %0, ptr noundef %1, i32 noundef %2) #0 {
  %4 = alloca ptr, align 8
  %5 = alloca ptr, align 8
  %6 = alloca i32, align 4
  %7 = alloca ptr, align 8
  %8 = alloca ptr, align 8
  store ptr %0, ptr %4, align 8
  store ptr %1, ptr %5, align 8
  store i32 %2, ptr %6, align 4
  %9 = load ptr, ptr %4, align 8
  %10 = load ptr, ptr %9, align 8
  %11 = getelementptr inbounds %struct.JNINativeInterface_, ptr %10, i32 0, i32 15
  %12 = load ptr, ptr %11, align 8
  %13 = load ptr, ptr %4, align 8
  %14 = call ptr %12(ptr noundef %13)
  store ptr %14, ptr %7, align 8
  %15 = icmp ne ptr %14, null
  br i1 %15, label %16, label %22

16:                                               ; preds = %3
  %17 = load ptr, ptr %4, align 8
  %18 = load ptr, ptr %17, align 8
  %19 = getelementptr inbounds %struct.JNINativeInterface_, ptr %18, i32 0, i32 17
  %20 = load ptr, ptr %19, align 8
  %21 = load ptr, ptr %4, align 8
  call void %20(ptr noundef %21)
  br label %22

22:                                               ; preds = %16, %3
  %23 = load ptr, ptr %4, align 8
  %24 = load ptr, ptr %23, align 8
  %25 = getelementptr inbounds %struct.JNINativeInterface_, ptr %24, i32 0, i32 101
  %26 = load ptr, ptr %25, align 8
  %27 = load ptr, ptr %4, align 8
  %28 = load ptr, ptr %5, align 8
  %29 = load ptr, ptr @widgetFieldID, align 8
  %30 = call i64 %26(ptr noundef %27, ptr noundef %28, ptr noundef %29)
  %31 = inttoptr i64 %30 to ptr
  store ptr %31, ptr %8, align 8
  %32 = load ptr, ptr %8, align 8
  %33 = icmp ne ptr %32, null
  br i1 %33, label %34, label %67

34:                                               ; preds = %22
  %35 = load i32, ptr %6, align 4
  %36 = icmp ne i32 %35, 0
  br i1 %36, label %41, label %37

37:                                               ; preds = %34
  %38 = load ptr, ptr @gtk, align 8
  %39 = getelementptr inbounds %struct.GtkApi, ptr %38, i32 0, i32 31
  %40 = load ptr, ptr %39, align 8
  call void %40()
  br label %41

41:                                               ; preds = %37, %34
  %42 = load ptr, ptr @gtk, align 8
  %43 = getelementptr inbounds %struct.GtkApi, ptr %42, i32 0, i32 37
  %44 = load ptr, ptr %43, align 8
  %45 = load ptr, ptr %8, align 8
  call void %44(ptr noundef %45)
  %46 = load ptr, ptr @gtk, align 8
  %47 = getelementptr inbounds %struct.GtkApi, ptr %46, i32 0, i32 58
  %48 = load ptr, ptr %47, align 8
  %49 = load ptr, ptr %8, align 8
  call void %48(ptr noundef %49)
  %50 = load ptr, ptr @gtk, align 8
  %51 = getelementptr inbounds %struct.GtkApi, ptr %50, i32 0, i32 38
  %52 = load ptr, ptr %51, align 8
  call void %52()
  %53 = load ptr, ptr %4, align 8
  %54 = load ptr, ptr %53, align 8
  %55 = getelementptr inbounds %struct.JNINativeInterface_, ptr %54, i32 0, i32 110
  %56 = load ptr, ptr %55, align 8
  %57 = load ptr, ptr %4, align 8
  %58 = load ptr, ptr %5, align 8
  %59 = load ptr, ptr @widgetFieldID, align 8
  call void %56(ptr noundef %57, ptr noundef %58, ptr noundef %59, i64 noundef 0)
  %60 = load i32, ptr %6, align 4
  %61 = icmp ne i32 %60, 0
  br i1 %61, label %66, label %62

62:                                               ; preds = %41
  %63 = load ptr, ptr @gtk, align 8
  %64 = getelementptr inbounds %struct.GtkApi, ptr %63, i32 0, i32 32
  %65 = load ptr, ptr %64, align 8
  call void %65()
  br label %66

66:                                               ; preds = %62, %41
  br label %67

67:                                               ; preds = %66, %22
  %68 = load ptr, ptr %7, align 8
  %69 = icmp ne ptr %68, null
  br i1 %69, label %70, label %78

70:                                               ; preds = %67
  %71 = load ptr, ptr %4, align 8
  %72 = load ptr, ptr %71, align 8
  %73 = getelementptr inbounds %struct.JNINativeInterface_, ptr %72, i32 0, i32 13
  %74 = load ptr, ptr %73, align 8
  %75 = load ptr, ptr %4, align 8
  %76 = load ptr, ptr %7, align 8
  %77 = call i32 %74(ptr noundef %75, ptr noundef %76)
  br label %78

78:                                               ; preds = %70, %67
  ret void
}

; Function Attrs: nounwind uwtable
define void @Java_sun_awt_X11_GtkFileDialogPeer_quit(ptr noundef %0, ptr noundef %1) #0 {
  %3 = alloca ptr, align 8
  %4 = alloca ptr, align 8
  store ptr %0, ptr %3, align 8
  store ptr %1, ptr %4, align 8
  %5 = load ptr, ptr %3, align 8
  %6 = load ptr, ptr %4, align 8
  call void @quit(ptr noundef %5, ptr noundef %6, i32 noundef 0)
  ret void
}