; Function Attrs: nounwind uwtable
define void @Java_sun_awt_X11_GtkFileDialogPeer_quit(ptr noundef %0, ptr noundef %1) local_unnamed_addr #0 {
  %3 = load ptr, ptr %0, align 8
  %4 = getelementptr inbounds i8, ptr %3, i64 120
  %5 = load ptr, ptr %4, align 8
  %6 = tail call ptr %5(ptr noundef nonnull %0) #5
  %.not.i = icmp eq ptr %6, null
  br i1 %.not.i, label %11, label %7

7:                                                ; preds = %2
  %8 = load ptr, ptr %0, align 8
  %9 = getelementptr inbounds i8, ptr %8, i64 136
  %10 = load ptr, ptr %9, align 8
  tail call void %10(ptr noundef nonnull %0) #5
  br label %11

11:                                               ; preds = %7, %2
  %12 = load ptr, ptr %0, align 8
  %13 = getelementptr inbounds i8, ptr %12, i64 808
  %14 = load ptr, ptr %13, align 8
  %15 = load ptr, ptr @widgetFieldID, align 8
  %16 = tail call i64 %14(ptr noundef nonnull %0, ptr noundef %1, ptr noundef %15) #5
  %.not19.i = icmp eq i64 %16, 0
  br i1 %.not19.i, label %38, label %17

17:                                               ; preds = %11
  %18 = inttoptr i64 %16 to ptr
  %19 = load ptr, ptr @gtk, align 8
  %20 = getelementptr inbounds i8, ptr %19, i64 248
  %21 = load ptr, ptr %20, align 8
  tail call void %21() #5
  %22 = load ptr, ptr @gtk, align 8
  %23 = getelementptr inbounds i8, ptr %22, i64 296
  %24 = load ptr, ptr %23, align 8
  tail call void %24(ptr noundef nonnull %18) #5
  %25 = load ptr, ptr @gtk, align 8
  %26 = getelementptr inbounds i8, ptr %25, i64 464
  %27 = load ptr, ptr %26, align 8
  tail call void %27(ptr noundef nonnull %18) #5
  %28 = load ptr, ptr @gtk, align 8
  %29 = getelementptr inbounds i8, ptr %28, i64 304
  %30 = load ptr, ptr %29, align 8
  tail call void %30() #5
  %31 = load ptr, ptr %0, align 8
  %32 = getelementptr inbounds i8, ptr %31, i64 880
  %33 = load ptr, ptr %32, align 8
  %34 = load ptr, ptr @widgetFieldID, align 8
  tail call void %33(ptr noundef nonnull %0, ptr noundef %1, ptr noundef %34, i64 noundef 0) #5
  %35 = load ptr, ptr @gtk, align 8
  %36 = getelementptr inbounds i8, ptr %35, i64 256
  %37 = load ptr, ptr %36, align 8
  tail call void %37() #5
  br label %38

38:                                               ; preds = %17, %11
  br i1 %.not.i, label %quit.exit, label %39

39:                                               ; preds = %38
  %40 = load ptr, ptr %0, align 8
  %41 = getelementptr inbounds i8, ptr %40, i64 104
  %42 = load ptr, ptr %41, align 8
  %43 = tail call i32 %42(ptr noundef nonnull %0, ptr noundef nonnull %6) #5
  br label %quit.exit

quit.exit:                                        ; preds = %38, %39
  ret void
}